; ModuleID = '29/1534.c'
source_filename = "29/1534.c"
target datalayout = "e-m:e-p270:32:32-p271:32:32-p272:64:64-i64:64-f80:128-n8:16:32:64-S128"
target triple = "x86_64-pc-linux-gnu"

%struct._IO_FILE = type { i32, i8*, i8*, i8*, i8*, i8*, i8*, i8*, i8*, i8*, i8*, i8*, %struct._IO_marker*, %struct._IO_FILE*, i32, i32, i64, i16, i8, [1 x i8], i8*, i64, %struct._IO_codecvt*, %struct._IO_wide_data*, %struct._IO_FILE*, i8*, i64, i32, [20 x i8] }
%struct._IO_marker = type opaque
%struct._IO_codecvt = type opaque
%struct._IO_wide_data = type opaque

@.str = private unnamed_addr constant [3 x i8] c"%d\00", align 1
@.str.1 = private unnamed_addr constant [7 x i8] c"%.3lf\0A\00", align 1
@stdin = external dso_local global %struct._IO_FILE*, align 8

; Function Attrs: noinline nounwind uwtable
define dso_local i32 @main() #0 {
  %1 = alloca i32, align 4
  %2 = alloca i32, align 4
  %3 = alloca i32, align 4
  %4 = alloca i32, align 4
  %5 = alloca i32, align 4
  %6 = alloca i32, align 4
  %7 = alloca double, align 8
  %8 = alloca double, align 8
  %9 = alloca i8*, align 8
  %10 = alloca i64, align 8
  %11 = alloca i32, align 4
  %12 = alloca i32, align 4
  %13 = alloca i32, align 4
  store i32 0, i32* %1, align 4
  store i32 1, i32* %3, align 4
  store i32 2, i32* %4, align 4
  store double 0.000000e+00, double* %8, align 8
  %14 = call i32 (i8*, ...) @__isoc99_scanf(i8* getelementptr inbounds ([3 x i8], [3 x i8]* @.str, i64 0, i64 0), i32* %6)
  %15 = load i32, i32* %6, align 4
  %16 = zext i32 %15 to i64
  %17 = call i8* @llvm.stacksave()
  store i8* %17, i8** %9, align 8
  %18 = alloca i32, i64 %16, align 16
  store i64 %16, i64* %10, align 8
  store i32 0, i32* %11, align 4
  br label %19

19:                                               ; preds = %28, %0
  %20 = load i32, i32* %11, align 4
  %21 = load i32, i32* %6, align 4
  %22 = icmp slt i32 %20, %21
  br i1 %22, label %23, label %31

23:                                               ; preds = %19
  %24 = load i32, i32* %11, align 4
  %25 = sext i32 %24 to i64
  %26 = getelementptr inbounds i32, i32* %18, i64 %25
  %27 = call i32 (i8*, ...) @__isoc99_scanf(i8* getelementptr inbounds ([3 x i8], [3 x i8]* @.str, i64 0, i64 0), i32* %26)
  br label %28

28:                                               ; preds = %23
  %29 = load i32, i32* %11, align 4
  %30 = add nsw i32 %29, 1
  store i32 %30, i32* %11, align 4
  br label %19

31:                                               ; preds = %19
  store i32 0, i32* %12, align 4
  br label %32

32:                                               ; preds = %65, %31
  %33 = load i32, i32* %12, align 4
  %34 = load i32, i32* %6, align 4
  %35 = icmp slt i32 %33, %34
  br i1 %35, label %36, label %68

36:                                               ; preds = %32
  store i32 1, i32* %13, align 4
  br label %37

37:                                               ; preds = %59, %36
  %38 = load i32, i32* %13, align 4
  %39 = load i32, i32* %12, align 4
  %40 = sext i32 %39 to i64
  %41 = getelementptr inbounds i32, i32* %18, i64 %40
  %42 = load i32, i32* %41, align 4
  %43 = icmp sle i32 %38, %42
  br i1 %43, label %44, label %62

44:                                               ; preds = %37
  %45 = load i32, i32* %4, align 4
  %46 = sitofp i32 %45 to double
  %47 = fmul double 1.000000e+00, %46
  %48 = load i32, i32* %3, align 4
  %49 = sitofp i32 %48 to double
  %50 = fdiv double %47, %49
  store double %50, double* %7, align 8
  %51 = load i32, i32* %3, align 4
  %52 = load i32, i32* %4, align 4
  %53 = add nsw i32 %51, %52
  store i32 %53, i32* %5, align 4
  %54 = load i32, i32* %4, align 4
  store i32 %54, i32* %3, align 4
  %55 = load i32, i32* %5, align 4
  store i32 %55, i32* %4, align 4
  %56 = load double, double* %7, align 8
  %57 = load double, double* %8, align 8
  %58 = fadd double %57, %56
  store double %58, double* %8, align 8
  br label %59

59:                                               ; preds = %44
  %60 = load i32, i32* %13, align 4
  %61 = add nsw i32 %60, 1
  store i32 %61, i32* %13, align 4
  br label %37

62:                                               ; preds = %37
  %63 = load double, double* %8, align 8
  %64 = call i32 (i8*, ...) @printf(i8* getelementptr inbounds ([7 x i8], [7 x i8]* @.str.1, i64 0, i64 0), double %63)
  store double 0.000000e+00, double* %8, align 8
  store i32 1, i32* %3, align 4
  store i32 2, i32* %4, align 4
  br label %65

65:                                               ; preds = %62
  %66 = load i32, i32* %12, align 4
  %67 = add nsw i32 %66, 1
  store i32 %67, i32* %12, align 4
  br label %32

68:                                               ; preds = %32
  br label %69

69:                                               ; preds = %77, %68
  %70 = call i32 @getchar()
  store i32 %70, i32* %2, align 4
  %71 = icmp ne i32 %70, 10
  br i1 %71, label %72, label %75

72:                                               ; preds = %69
  %73 = load i32, i32* %2, align 4
  %74 = icmp ne i32 %73, -1
  br label %75

75:                                               ; preds = %72, %69
  %76 = phi i1 [ false, %69 ], [ %74, %72 ]
  br i1 %76, label %77, label %78

77:                                               ; preds = %75
  br label %69

78:                                               ; preds = %75
  %79 = load %struct._IO_FILE*, %struct._IO_FILE** @stdin, align 8
  call void @clearerr(%struct._IO_FILE* %79) #2
  %80 = call i32 @getchar()
  store i32 0, i32* %1, align 4
  %81 = load i8*, i8** %9, align 8
  call void @llvm.stackrestore(i8* %81)
  %82 = load i32, i32* %1, align 4
  ret i32 %82
}

declare dso_local i32 @__isoc99_scanf(i8*, ...) #1

; Function Attrs: nounwind
declare i8* @llvm.stacksave() #2

declare dso_local i32 @printf(i8*, ...) #1

declare dso_local i32 @getchar() #1

; Function Attrs: nounwind
declare dso_local void @clearerr(%struct._IO_FILE*) #3

; Function Attrs: nounwind
declare void @llvm.stackrestore(i8*) #2


!llvm.module.flags = !{!0}
!llvm.ident = !{!1}

!0 = !{i32 1, !"wchar_size", i32 4}
!1 = !{!"clang version 10.0.0-4ubuntu1 "}
